target datalayout = "e-m:e-p270:32:32-p271:32:32-p272:64:64-i64:64-i128:128-f80:128-n8:16:32:64-S128"
target triple = "x86_64-pc-linux-gnu"

; Function Attrs: nounwind uwtable
define i32 @av_packet_unpack_dictionary(ptr noundef %0, i64 noundef %1, ptr noundef %2) #0 {
  %4 = alloca i32, align 4
  %5 = alloca ptr, align 8
  %6 = alloca i64, align 8
  %7 = alloca ptr, align 8
  %8 = alloca ptr, align 8
  %9 = alloca i32, align 4
  %10 = alloca i32, align 4
  %11 = alloca ptr, align 8
  %12 = alloca ptr, align 8
  store ptr %0, ptr %5, align 8, !tbaa !42
  store i64 %1, ptr %6, align 8, !tbaa !43
  store ptr %2, ptr %7, align 8, !tbaa !66
  call void @llvm.lifetime.start.p0(i64 8, ptr %8) #9
  call void @llvm.lifetime.start.p0(i64 4, ptr %9) #9
  %13 = load ptr, ptr %7, align 8, !tbaa !66
  %14 = icmp ne ptr %13, null
  br i1 %14, label %15, label %21

15:                                               ; preds = %3
  %16 = load ptr, ptr %5, align 8, !tbaa !42
  %17 = icmp ne ptr %16, null
  br i1 %17, label %18, label %21

18:                                               ; preds = %15
  %19 = load i64, ptr %6, align 8, !tbaa !43
  %20 = icmp ne i64 %19, 0
  br i1 %20, label %22, label %21

21:                                               ; preds = %18, %15, %3
  store i32 0, ptr %4, align 4
  store i32 1, ptr %10, align 4
  br label %74

22:                                               ; preds = %18
  %23 = load ptr, ptr %5, align 8, !tbaa !42
  %24 = load i64, ptr %6, align 8, !tbaa !43
  %25 = getelementptr inbounds nuw i8, ptr %23, i64 %24
  store ptr %25, ptr %8, align 8, !tbaa !42
  %26 = load i64, ptr %6, align 8, !tbaa !43
  %27 = icmp ne i64 %26, 0
  br i1 %27, label %28, label %35

28:                                               ; preds = %22
  %29 = load ptr, ptr %8, align 8, !tbaa !42
  %30 = getelementptr inbounds i8, ptr %29, i64 -1
  %31 = load i8, ptr %30, align 1, !tbaa !68
  %32 = zext i8 %31 to i32
  %33 = icmp ne i32 %32, 0
  br i1 %33, label %34, label %35

34:                                               ; preds = %28
  store i32 -1094995529, ptr %4, align 4
  store i32 1, ptr %10, align 4
  br label %74

35:                                               ; preds = %28, %22
  br label %36

36:                                               ; preds = %72, %35
  %37 = load ptr, ptr %5, align 8, !tbaa !42
  %38 = load ptr, ptr %8, align 8, !tbaa !42
  %39 = icmp ult ptr %37, %38
  br i1 %39, label %40, label %73

40:                                               ; preds = %36
  call void @llvm.lifetime.start.p0(i64 8, ptr %11) #9
  %41 = load ptr, ptr %5, align 8, !tbaa !42
  store ptr %41, ptr %11, align 8, !tbaa !42
  call void @llvm.lifetime.start.p0(i64 8, ptr %12) #9
  %42 = load ptr, ptr %5, align 8, !tbaa !42
  %43 = load ptr, ptr %11, align 8, !tbaa !42
  %44 = call i64 @strlen(ptr noundef %43) #11
  %45 = getelementptr inbounds nuw i8, ptr %42, i64 %44
  %46 = getelementptr inbounds i8, ptr %45, i64 1
  store ptr %46, ptr %12, align 8, !tbaa !42
  %47 = load ptr, ptr %12, align 8, !tbaa !42
  %48 = load ptr, ptr %8, align 8, !tbaa !42
  %49 = icmp uge ptr %47, %48
  br i1 %49, label %54, label %50

50:                                               ; preds = %40
  %51 = load ptr, ptr %11, align 8, !tbaa !42
  %52 = load i8, ptr %51, align 1, !tbaa !68
  %53 = icmp ne i8 %52, 0
  br i1 %53, label %55, label %54

54:                                               ; preds = %50, %40
  store i32 -1094995529, ptr %4, align 4
  store i32 1, ptr %10, align 4
  br label %70

55:                                               ; preds = %50
  %56 = load ptr, ptr %7, align 8, !tbaa !66
  %57 = load ptr, ptr %11, align 8, !tbaa !42
  %58 = load ptr, ptr %12, align 8, !tbaa !42
  %59 = call i32 @av_dict_set(ptr noundef %56, ptr noundef %57, ptr noundef %58, i32 noundef 0)
  store i32 %59, ptr %9, align 4, !tbaa !28
  %60 = load i32, ptr %9, align 4, !tbaa !28
  %61 = icmp slt i32 %60, 0
  br i1 %61, label %62, label %64

62:                                               ; preds = %55
  %63 = load i32, ptr %9, align 4, !tbaa !28
  store i32 %63, ptr %4, align 4
  store i32 1, ptr %10, align 4
  br label %70

64:                                               ; preds = %55
  %65 = load ptr, ptr %12, align 8, !tbaa !42
  %66 = load ptr, ptr %12, align 8, !tbaa !42
  %67 = call i64 @strlen(ptr noundef %66) #11
  %68 = getelementptr inbounds nuw i8, ptr %65, i64 %67
  %69 = getelementptr inbounds i8, ptr %68, i64 1
  store ptr %69, ptr %5, align 8, !tbaa !42
  store i32 0, ptr %10, align 4
  br label %70

70:                                               ; preds = %64, %62, %54
  call void @llvm.lifetime.end.p0(i64 8, ptr %12) #9
  call void @llvm.lifetime.end.p0(i64 8, ptr %11) #9
  %71 = load i32, ptr %10, align 4
  switch i32 %71, label %74 [
    i32 0, label %72
  ]

72:                                               ; preds = %70
  br label %36, !llvm.loop !69

73:                                               ; preds = %36
  store i32 0, ptr %4, align 4
  store i32 1, ptr %10, align 4
  br label %74

74:                                               ; preds = %73, %70, %34, %21
  call void @llvm.lifetime.end.p0(i64 4, ptr %9) #9
  call void @llvm.lifetime.end.p0(i64 8, ptr %8) #9
  %75 = load i32, ptr %4, align 4
  ret i32 %75
}