; Function Attrs: nounwind uwtable
define range(i32 -2147483648, 1) i32 @av_packet_unpack_dictionary(ptr noundef %0, i64 noundef %1, ptr noundef %2) local_unnamed_addr #3 {
  %4 = icmp ne ptr %2, null
  %5 = icmp ne ptr %0, null
  %or.cond = and i1 %5, %4
  %6 = icmp ne i64 %1, 0
  %or.cond3 = and i1 %6, %or.cond
  br i1 %or.cond3, label %7, label %.thread

7:                                                ; preds = %3
  %8 = getelementptr inbounds nuw i8, ptr %0, i64 %1
  %9 = getelementptr inbounds i8, ptr %8, i64 -1
  %10 = load i8, ptr %9, align 1, !tbaa !45
  %.not = icmp eq i8 %10, 0
  br i1 %.not, label %.lr.ph, label %.thread

.lr.ph:                                           ; preds = %7, %19
  %.02640 = phi ptr [ %22, %19 ], [ %0, %7 ]
  %11 = tail call i64 @strlen(ptr noundef nonnull dereferenceable(1) %.02640) #18
  %12 = getelementptr inbounds nuw i8, ptr %.02640, i64 %11
  %13 = getelementptr inbounds nuw i8, ptr %12, i64 1
  %.not35 = icmp ult ptr %13, %8
  br i1 %.not35, label %14, label %.thread

14:                                               ; preds = %.lr.ph
  %15 = load i8, ptr %.02640, align 1, !tbaa !45
  %.not36 = icmp eq i8 %15, 0
  br i1 %.not36, label %.thread, label %16

16:                                               ; preds = %14
  %17 = tail call i32 @av_dict_set(ptr noundef nonnull %2, ptr noundef nonnull %.02640, ptr noundef nonnull %13, i32 noundef 0) #16
  %18 = icmp slt i32 %17, 0
  br i1 %18, label %.thread, label %19

19:                                               ; preds = %16
  %20 = tail call i64 @strlen(ptr noundef nonnull dereferenceable(1) %13) #18
  %21 = getelementptr inbounds nuw i8, ptr %13, i64 %20
  %22 = getelementptr inbounds nuw i8, ptr %21, i64 1
  %23 = icmp ult ptr %22, %8
  br i1 %23, label %.lr.ph, label %.thread, !llvm.loop !46

.thread:                                          ; preds = %19, %14, %.lr.ph, %16, %7, %3
  %.0 = phi i32 [ 0, %3 ], [ -1094995529, %7 ], [ 0, %19 ], [ -1094995529, %14 ], [ -1094995529, %.lr.ph ], [ %17, %16 ]
  ret i32 %.0
}